target datalayout = "e-m:e-p270:32:32-p271:32:32-p272:64:64-i64:64-i128:128-f80:128-n8:16:32:64-S128"
target triple = "x86_64-pc-linux-gnu"

%union.mbedtls_ssl_user_data_t = type { i64 }
%struct.mbedtls_ssl_config = type { i32, i32, i8, i8, i8, i8, i8, i8, i8, i8, i8, i8, i16, i8, i8, i8, ptr, i32, ptr, ptr, ptr, ptr, ptr, ptr, ptr, ptr, ptr, ptr, ptr, ptr, ptr, ptr, ptr, ptr, ptr, ptr, ptr, i64, ptr, ptr, ptr, ptr, ptr, ptr, ptr, ptr, %struct.mbedtls_mpi, %struct.mbedtls_mpi, ptr, i64, ptr, i64, ptr, i32, i32, i32, i32, [8 x i8], i32, i32, %union.mbedtls_ssl_user_data_t, ptr, ptr }
%struct.mbedtls_mpi = type { ptr, i16, i16 }

; Function Attrs: nounwind uwtable
define hidden void @mbedtls_ssl_conf_dtls_cookies(ptr noundef %0, ptr noundef %1, ptr noundef %2, ptr noundef %3) #0 {
  %5 = alloca ptr, align 8
  %6 = alloca ptr, align 8
  %7 = alloca ptr, align 8
  %8 = alloca ptr, align 8
  store ptr %0, ptr %5, align 8, !tbaa !34
  store ptr %1, ptr %6, align 8, !tbaa !35
  store ptr %2, ptr %7, align 8, !tbaa !35
  store ptr %3, ptr %8, align 8, !tbaa !35
  %9 = load ptr, ptr %6, align 8, !tbaa !35
  %10 = load ptr, ptr %5, align 8, !tbaa !34
  %11 = getelementptr inbounds nuw %struct.mbedtls_ssl_config, ptr %10, i32 0, i32 31
  store ptr %9, ptr %11, align 8, !tbaa !36
  %12 = load ptr, ptr %7, align 8, !tbaa !35
  %13 = load ptr, ptr %5, align 8, !tbaa !34
  %14 = getelementptr inbounds nuw %struct.mbedtls_ssl_config, ptr %13, i32 0, i32 32
  store ptr %12, ptr %14, align 8, !tbaa !37
  %15 = load ptr, ptr %8, align 8, !tbaa !35
  %16 = load ptr, ptr %5, align 8, !tbaa !34
  %17 = getelementptr inbounds nuw %struct.mbedtls_ssl_config, ptr %16, i32 0, i32 33
  store ptr %15, ptr %17, align 8, !tbaa !38
  ret void
}