; Function Attrs: mustprogress nofree norecurse nosync nounwind willreturn memory(argmem: write) uwtable
define hidden void @mbedtls_ssl_conf_dtls_cookies(ptr noundef writeonly captures(none) initializes((144, 168)) %0, ptr noundef %1, ptr noundef %2, ptr noundef %3) local_unnamed_addr #4 {
  %5 = getelementptr inbounds nuw i8, ptr %0, i64 144
  store ptr %1, ptr %5, align 8, !tbaa !30
  %6 = getelementptr inbounds nuw i8, ptr %0, i64 152
  store ptr %2, ptr %6, align 8, !tbaa !31
  %7 = getelementptr inbounds nuw i8, ptr %0, i64 160
  store ptr %3, ptr %7, align 8, !tbaa !32
  ret void
}